target datalayout = "e-m:e-p270:32:32-p271:32:32-p272:64:64-i64:64-i128:128-f80:128-n8:16:32:64-S128"
target triple = "x86_64-pc-linux-gnu"

%"class.std::__cxx11::basic_string" = type { %"struct.std::__cxx11::basic_string<char>::_Alloc_hider", i64, %union.anon }
%"struct.std::__cxx11::basic_string<char>::_Alloc_hider" = type { ptr }
%union.anon = type { i64, [8 x i8] }
%"class.std::vector" = type { %"struct.std::_Vector_base" }
%"struct.std::_Vector_base" = type { %"struct.std::_Vector_base<std::__cxx11::basic_string<char>, std::allocator<std::__cxx11::basic_string<char>>>::_Vector_impl" }
%"struct.std::_Vector_base<std::__cxx11::basic_string<char>, std::allocator<std::__cxx11::basic_string<char>>>::_Vector_impl" = type { %"struct.std::_Vector_base<std::__cxx11::basic_string<char>, std::allocator<std::__cxx11::basic_string<char>>>::_Vector_impl_data" }
%"struct.std::_Vector_base<std::__cxx11::basic_string<char>, std::allocator<std::__cxx11::basic_string<char>>>::_Vector_impl_data" = type { ptr, ptr, ptr }
%"class.Json::StyledWriter" = type <{ %"class.Json::Writer", %"class.std::vector", %"class.std::__cxx11::basic_string", %"class.std::__cxx11::basic_string", i32, i32, i8, [7 x i8] }>
%"class.Json::Writer" = type { ptr }

@.str = private unnamed_addr constant [1 x i8] zeroinitializer, align 1
@.str.21 = private unnamed_addr constant [2 x i8] c"\0A\00", align 1

; Function Attrs: mustprogress uwtable
define dso_local void @_ZN4Json12StyledWriter5writeB5cxx11ERKNS_5ValueE(ptr dead_on_unwind noalias writable sret(%"class.std::__cxx11::basic_string") align 8 %0, ptr noundef nonnull align 8 dereferenceable(105) %1, ptr noundef nonnull align 8 dereferenceable(32) %2) unnamed_addr #1 align 2 {
  %4 = alloca ptr, align 8
  %5 = alloca ptr, align 8
  %6 = alloca ptr, align 8
  store ptr %0, ptr %4, align 8
  store ptr %1, ptr %5, align 8
  store ptr %2, ptr %6, align 8
  %7 = load ptr, ptr %5, align 8
  %8 = getelementptr inbounds %"class.Json::StyledWriter", ptr %7, i32 0, i32 2
  %9 = call noundef nonnull align 8 dereferenceable(32) ptr @_ZNSt7__cxx1112basic_stringIcSt11char_traitsIcESaIcEEaSEPKc(ptr noundef nonnull align 8 dereferenceable(32) %8, ptr noundef @.str)
  %10 = getelementptr inbounds %"class.Json::StyledWriter", ptr %7, i32 0, i32 6
  store i8 0, ptr %10, align 8
  %11 = getelementptr inbounds %"class.Json::StyledWriter", ptr %7, i32 0, i32 3
  %12 = call noundef nonnull align 8 dereferenceable(32) ptr @_ZNSt7__cxx1112basic_stringIcSt11char_traitsIcESaIcEEaSEPKc(ptr noundef nonnull align 8 dereferenceable(32) %11, ptr noundef @.str)
  %13 = load ptr, ptr %6, align 8
  call void @_ZN4Json12StyledWriter23writeCommentBeforeValueERKNS_5ValueE(ptr noundef nonnull align 8 dereferenceable(105) %7, ptr noundef nonnull align 8 dereferenceable(32) %13)
  %14 = load ptr, ptr %6, align 8
  call void @_ZN4Json12StyledWriter10writeValueERKNS_5ValueE(ptr noundef nonnull align 8 dereferenceable(105) %7, ptr noundef nonnull align 8 dereferenceable(32) %14)
  %15 = load ptr, ptr %6, align 8
  call void @_ZN4Json12StyledWriter32writeCommentAfterValueOnSameLineERKNS_5ValueE(ptr noundef nonnull align 8 dereferenceable(105) %7, ptr noundef nonnull align 8 dereferenceable(32) %15)
  %16 = getelementptr inbounds %"class.Json::StyledWriter", ptr %7, i32 0, i32 2
  %17 = call noundef nonnull align 8 dereferenceable(32) ptr @_ZNSt7__cxx1112basic_stringIcSt11char_traitsIcESaIcEEpLEPKc(ptr noundef nonnull align 8 dereferenceable(32) %16, ptr noundef @.str.21)
  %18 = getelementptr inbounds %"class.Json::StyledWriter", ptr %7, i32 0, i32 2
  call void @_ZNSt7__cxx1112basic_stringIcSt11char_traitsIcESaIcEEC1ERKS4_(ptr noundef nonnull align 8 dereferenceable(32) %0, ptr noundef nonnull align 8 dereferenceable(32) %18)
  ret void
}